; Function Attrs: mustprogress nounwind uwtable
define internal fastcc void @_ZN12_GLOBAL__N_114ODRTypeVisitor23VisitUnaryTransformTypeEPKN5clang18UnaryTransformTypeE(ptr noundef nonnull readonly align 8 captures(none) dereferenceable(16) %0, ptr noundef readonly captures(none) %1) unnamed_addr #0 align 2 {
  %3 = getelementptr inbounds nuw i8, ptr %1, i64 32
  %.sroa.0.0.copyload.i = load i64, ptr %3, align 16
  %4 = getelementptr inbounds nuw i8, ptr %0, i64 8
  %5 = load ptr, ptr %4, align 8
  tail call void @_ZN5clang7ODRHash11AddQualTypeENS_8QualTypeE(ptr noundef nonnull align 8 dereferenceable(320) %5, i64 %.sroa.0.0.copyload.i)
  %6 = getelementptr inbounds nuw i8, ptr %1, i64 24
  %.sroa.0.0.copyload.i5 = load i64, ptr %6, align 8
  %7 = load ptr, ptr %4, align 8
  tail call void @_ZN5clang7ODRHash11AddQualTypeENS_8QualTypeE(ptr noundef nonnull align 8 dereferenceable(320) %7, i64 %.sroa.0.0.copyload.i5)
  ret void
}